target datalayout = "e-m:e-p270:32:32-p271:32:32-p272:64:64-i64:64-i128:128-f80:128-n8:16:32:64-S128"
target triple = "x86_64-pc-linux-gnu"

%struct.Vec_Str_t_ = type { i32, i32, ptr }

; Function Attrs: inlinehint nounwind uwtable
define internal void @Abc_TtSetBit(ptr noundef %0, i32 noundef %1) #2 {
  %3 = alloca ptr, align 8
  %4 = alloca i32, align 4
  store ptr %0, ptr %3, align 8, !tbaa !12
  store i32 %1, ptr %4, align 4, !tbaa !8
  %5 = load i32, ptr %4, align 4, !tbaa !8
  %6 = and i32 %5, 63
  %7 = zext i32 %6 to i64
  %8 = shl i64 1, %7
  %9 = load ptr, ptr %3, align 8, !tbaa !12
  %10 = load i32, ptr %4, align 4, !tbaa !8
  %11 = ashr i32 %10, 6
  %12 = sext i32 %11 to i64
  %13 = getelementptr inbounds i64, ptr %9, i64 %12
  %14 = load i64, ptr %13, align 8, !tbaa !23
  %15 = or i64 %14, %8
  store i64 %15, ptr %13, align 8, !tbaa !23
  ret void
}

; Function Attrs: inlinehint nounwind uwtable
define internal i32 @Abc_Var2Lit(i32 noundef %0, i32 noundef %1) #2 {
  %3 = alloca i32, align 4
  %4 = alloca i32, align 4
  store i32 %0, ptr %3, align 4, !tbaa !8
  store i32 %1, ptr %4, align 4, !tbaa !8
  %5 = load i32, ptr %3, align 4, !tbaa !8
  %6 = load i32, ptr %3, align 4, !tbaa !8
  %7 = add nsw i32 %5, %6
  %8 = load i32, ptr %4, align 4, !tbaa !8
  %9 = add nsw i32 %7, %8
  ret i32 %9
}

; Function Attrs: inlinehint nounwind uwtable
define internal i32 @Abc_Bit6WordNum(i32 noundef %0) #2 {
  %2 = alloca i32, align 4
  store i32 %0, ptr %2, align 4, !tbaa !8
  %3 = load i32, ptr %2, align 4, !tbaa !8
  %4 = ashr i32 %3, 6
  %5 = load i32, ptr %2, align 4, !tbaa !8
  %6 = and i32 %5, 63
  %7 = icmp sgt i32 %6, 0
  %8 = zext i1 %7 to i32
  %9 = add nsw i32 %4, %8
  ret i32 %9
}

; Function Attrs: inlinehint nounwind uwtable
define internal ptr @Vec_StrArray(ptr noundef %0) #2 {
  %2 = alloca ptr, align 8
  store ptr %0, ptr %2, align 8, !tbaa !41
  %3 = load ptr, ptr %2, align 8, !tbaa !41
  %4 = getelementptr inbounds nuw %struct.Vec_Str_t_, ptr %3, i32 0, i32 2
  %5 = load ptr, ptr %4, align 8, !tbaa !49
  ret ptr %5
}

; Function Attrs: nounwind uwtable
define ptr @Io_ReadPlaCubeSetup(ptr noundef %0) #0 {
  %2 = alloca ptr, align 8
  %3 = alloca ptr, align 8
  %4 = alloca ptr, align 8
  %5 = alloca i8, align 1
  %6 = alloca i32, align 4
  %7 = alloca i32, align 4
  %8 = alloca i32, align 4
  %9 = alloca i32, align 4
  %10 = alloca i32, align 4
  %11 = alloca ptr, align 8
  store ptr %0, ptr %2, align 8, !tbaa !41
  call void @llvm.lifetime.start.p0(i64 8, ptr %3) #12
  %12 = load ptr, ptr %2, align 8, !tbaa !41
  %13 = call ptr @Vec_StrArray(ptr noundef %12)
  store ptr %13, ptr %3, align 8, !tbaa !43
  call void @llvm.lifetime.start.p0(i64 8, ptr %4) #12
  call void @llvm.lifetime.start.p0(i64 1, ptr %5) #12
  call void @llvm.lifetime.start.p0(i64 4, ptr %6) #12
  %14 = load ptr, ptr %3, align 8, !tbaa !43
  %15 = call i32 @Abc_SopGetCubeNum(ptr noundef %14)
  store i32 %15, ptr %6, align 4, !tbaa !8
  call void @llvm.lifetime.start.p0(i64 4, ptr %7) #12
  %16 = load ptr, ptr %3, align 8, !tbaa !43
  %17 = call i32 @Abc_SopGetVarNum(ptr noundef %16)
  store i32 %17, ptr %7, align 4, !tbaa !8
  call void @llvm.lifetime.start.p0(i64 4, ptr %8) #12
  %18 = load i32, ptr %7, align 4, !tbaa !8
  %19 = mul nsw i32 2, %18
  %20 = call i32 @Abc_Bit6WordNum(i32 noundef %19)
  store i32 %20, ptr %8, align 4, !tbaa !8
  call void @llvm.lifetime.start.p0(i64 4, ptr %9) #12
  call void @llvm.lifetime.start.p0(i64 4, ptr %10) #12
  call void @llvm.lifetime.start.p0(i64 8, ptr %11) #12
  %21 = load i32, ptr %6, align 4, !tbaa !8
  %22 = sext i32 %21 to i64
  %23 = mul i64 8, %22
  %24 = call noalias ptr @malloc(i64 noundef %23) #13
  store ptr %24, ptr %11, align 8, !tbaa !3
  %25 = load i32, ptr %6, align 4, !tbaa !8
  %26 = load i32, ptr %8, align 4, !tbaa !8
  %27 = mul nsw i32 %25, %26
  %28 = sext i32 %27 to i64
  %29 = call noalias ptr @calloc(i64 noundef %28, i64 noundef 8) #14
  %30 = load ptr, ptr %11, align 8, !tbaa !3
  %31 = getelementptr inbounds ptr, ptr %30, i64 0
  store ptr %29, ptr %31, align 8, !tbaa !12
  store i32 1, ptr %9, align 4, !tbaa !8
  br label %32

32:                                               ; preds = %50, %1
  %33 = load i32, ptr %9, align 4, !tbaa !8
  %34 = load i32, ptr %6, align 4, !tbaa !8
  %35 = icmp slt i32 %33, %34
  br i1 %35, label %36, label %53

36:                                               ; preds = %32
  %37 = load ptr, ptr %11, align 8, !tbaa !3
  %38 = load i32, ptr %9, align 4, !tbaa !8
  %39 = sub nsw i32 %38, 1
  %40 = sext i32 %39 to i64
  %41 = getelementptr inbounds ptr, ptr %37, i64 %40
  %42 = load ptr, ptr %41, align 8, !tbaa !12
  %43 = load i32, ptr %8, align 4, !tbaa !8
  %44 = sext i32 %43 to i64
  %45 = getelementptr inbounds i64, ptr %42, i64 %44
  %46 = load ptr, ptr %11, align 8, !tbaa !3
  %47 = load i32, ptr %9, align 4, !tbaa !8
  %48 = sext i32 %47 to i64
  %49 = getelementptr inbounds ptr, ptr %46, i64 %48
  store ptr %45, ptr %49, align 8, !tbaa !12
  br label %50

50:                                               ; preds = %36
  %51 = load i32, ptr %9, align 4, !tbaa !8
  %52 = add nsw i32 %51, 1
  store i32 %52, ptr %9, align 4, !tbaa !8
  br label %32, !llvm.loop !45

53:                                               ; preds = %32
  store i32 0, ptr %9, align 4, !tbaa !8
  %54 = load ptr, ptr %3, align 8, !tbaa !43
  store ptr %54, ptr %4, align 8, !tbaa !43
  br label %55

55:                                               ; preds = %110, %53
  %56 = load ptr, ptr %4, align 8, !tbaa !43
  %57 = load i8, ptr %56, align 1, !tbaa !46
  %58 = icmp ne i8 %57, 0
  br i1 %58, label %59, label %116

59:                                               ; preds = %55
  store i32 0, ptr %10, align 4, !tbaa !8
  br label %60

60:                                               ; preds = %104, %59
  %61 = load ptr, ptr %4, align 8, !tbaa !43
  %62 = load i32, ptr %10, align 4, !tbaa !8
  %63 = sext i32 %62 to i64
  %64 = getelementptr inbounds i8, ptr %61, i64 %63
  %65 = load i8, ptr %64, align 1, !tbaa !46
  %66 = sext i8 %65 to i32
  %67 = icmp ne i32 %66, 32
  br i1 %67, label %68, label %76

68:                                               ; preds = %60
  %69 = load ptr, ptr %4, align 8, !tbaa !43
  %70 = load i32, ptr %10, align 4, !tbaa !8
  %71 = sext i32 %70 to i64
  %72 = getelementptr inbounds i8, ptr %69, i64 %71
  %73 = load i8, ptr %72, align 1, !tbaa !46
  store i8 %73, ptr %5, align 1, !tbaa !46
  %74 = sext i8 %73 to i32
  %75 = icmp ne i32 %74, 0
  br label %76

76:                                               ; preds = %68, %60
  %77 = phi i1 [ false, %60 ], [ %75, %68 ]
  br i1 %77, label %78, label %107

78:                                               ; preds = %76
  %79 = load i8, ptr %5, align 1, !tbaa !46
  %80 = sext i8 %79 to i32
  %81 = icmp eq i32 %80, 48
  br i1 %81, label %82, label %90

82:                                               ; preds = %78
  %83 = load ptr, ptr %11, align 8, !tbaa !3
  %84 = load i32, ptr %9, align 4, !tbaa !8
  %85 = sext i32 %84 to i64
  %86 = getelementptr inbounds ptr, ptr %83, i64 %85
  %87 = load ptr, ptr %86, align 8, !tbaa !12
  %88 = load i32, ptr %10, align 4, !tbaa !8
  %89 = call i32 @Abc_Var2Lit(i32 noundef %88, i32 noundef 0)
  call void @Abc_TtSetBit(ptr noundef %87, i32 noundef %89)
  br label %103

90:                                               ; preds = %78
  %91 = load i8, ptr %5, align 1, !tbaa !46
  %92 = sext i8 %91 to i32
  %93 = icmp eq i32 %92, 49
  br i1 %93, label %94, label %102

94:                                               ; preds = %90
  %95 = load ptr, ptr %11, align 8, !tbaa !3
  %96 = load i32, ptr %9, align 4, !tbaa !8
  %97 = sext i32 %96 to i64
  %98 = getelementptr inbounds ptr, ptr %95, i64 %97
  %99 = load ptr, ptr %98, align 8, !tbaa !12
  %100 = load i32, ptr %10, align 4, !tbaa !8
  %101 = call i32 @Abc_Var2Lit(i32 noundef %100, i32 noundef 1)
  call void @Abc_TtSetBit(ptr noundef %99, i32 noundef %101)
  br label %102

102:                                              ; preds = %94, %90
  br label %103

103:                                              ; preds = %102, %82
  br label %104

104:                                              ; preds = %103
  %105 = load i32, ptr %10, align 4, !tbaa !8
  %106 = add nsw i32 %105, 1
  store i32 %106, ptr %10, align 4, !tbaa !8
  br label %60, !llvm.loop !47

107:                                              ; preds = %76
  %108 = load i32, ptr %9, align 4, !tbaa !8
  %109 = add nsw i32 %108, 1
  store i32 %109, ptr %9, align 4, !tbaa !8
  br label %110

110:                                              ; preds = %107
  %111 = load i32, ptr %7, align 4, !tbaa !8
  %112 = add nsw i32 %111, 3
  %113 = load ptr, ptr %4, align 8, !tbaa !43
  %114 = sext i32 %112 to i64
  %115 = getelementptr inbounds i8, ptr %113, i64 %114
  store ptr %115, ptr %4, align 8, !tbaa !43
  br label %55, !llvm.loop !48

116:                                              ; preds = %55
  %117 = load ptr, ptr %11, align 8, !tbaa !3
  call void @llvm.lifetime.end.p0(i64 8, ptr %11) #12
  call void @llvm.lifetime.end.p0(i64 4, ptr %10) #12
  call void @llvm.lifetime.end.p0(i64 4, ptr %9) #12
  call void @llvm.lifetime.end.p0(i64 4, ptr %8) #12
  call void @llvm.lifetime.end.p0(i64 4, ptr %7) #12
  call void @llvm.lifetime.end.p0(i64 4, ptr %6) #12
  call void @llvm.lifetime.end.p0(i64 1, ptr %5) #12
  call void @llvm.lifetime.end.p0(i64 8, ptr %4) #12
  call void @llvm.lifetime.end.p0(i64 8, ptr %3) #12
  ret ptr %117
}