; Function Attrs: nounwind uwtable
define noalias noundef ptr @Io_ReadPlaCubeSetup(ptr noundef readonly captures(none) %0) local_unnamed_addr #0 {
  %2 = getelementptr i8, ptr %0, i64 8
  %.val = load ptr, ptr %2, align 8, !tbaa !33
  %3 = tail call i32 @Abc_SopGetCubeNum(ptr noundef %.val) #16
  %4 = tail call i32 @Abc_SopGetVarNum(ptr noundef %.val) #16
  %5 = ashr i32 %4, 5
  %6 = and i32 %4, 31
  %7 = icmp ne i32 %6, 0
  %8 = zext i1 %7 to i32
  %9 = add nsw i32 %5, %8
  %10 = sext i32 %3 to i64
  %11 = shl nsw i64 %10, 3
  %12 = tail call noalias ptr @malloc(i64 noundef %11) #15
  %13 = mul nsw i32 %9, %3
  %14 = sext i32 %13 to i64
  %15 = tail call noalias ptr @calloc(i64 noundef %14, i64 noundef 8) #17
  store ptr %15, ptr %12, align 8, !tbaa !15
  %16 = icmp sgt i32 %3, 1
  br i1 %16, label %.lr.ph, label %.preheader39

.lr.ph:                                           ; preds = %1
  %17 = sext i32 %9 to i64
  %wide.trip.count = zext nneg i32 %3 to i64
  %load_initial = load ptr, ptr %12, align 8
  br label %20

.preheader39:                                     ; preds = %20, %1
  %18 = load i8, ptr %.val, align 1, !tbaa !36
  %.not41 = icmp eq i8 %18, 0
  br i1 %.not41, label %._crit_edge, label %.preheader.lr.ph

.preheader.lr.ph:                                 ; preds = %.preheader39
  %19 = sext i32 %4 to i64
  br label %.preheader

20:                                               ; preds = %.lr.ph, %20
  %store_forwarded = phi ptr [ %load_initial, %.lr.ph ], [ %22, %20 ]
  %indvars.iv = phi i64 [ 1, %.lr.ph ], [ %indvars.iv.next, %20 ]
  %21 = getelementptr ptr, ptr %12, i64 %indvars.iv
  %22 = getelementptr inbounds i64, ptr %store_forwarded, i64 %17
  store ptr %22, ptr %21, align 8, !tbaa !15
  %indvars.iv.next = add nuw nsw i64 %indvars.iv, 1
  %exitcond.not = icmp eq i64 %indvars.iv.next, %wide.trip.count
  br i1 %exitcond.not, label %.preheader39, label %20, !llvm.loop !37

.preheader:                                       ; preds = %.preheader.lr.ph, %.critedge
  %23 = phi i8 [ %18, %.preheader.lr.ph ], [ %40, %.critedge ]
  %indvars.iv48 = phi i64 [ 0, %.preheader.lr.ph ], [ %indvars.iv.next49, %.critedge ]
  %.043 = phi ptr [ %.val, %.preheader.lr.ph ], [ %39, %.critedge ]
  %24 = getelementptr inbounds nuw ptr, ptr %12, i64 %indvars.iv48
  br label %25

25:                                               ; preds = %.preheader, %37
  %26 = phi i8 [ %23, %.preheader ], [ %.pre, %37 ]
  %indvars.iv45 = phi i64 [ 0, %.preheader ], [ %indvars.iv.next46, %37 ]
  switch i8 %26, label %37 [
    i8 32, label %.critedge
    i8 0, label %.critedge
    i8 48, label %.sink.split
    i8 49, label %27
  ]

27:                                               ; preds = %25
  br label %.sink.split

.sink.split:                                      ; preds = %25, %27
  %.sink = phi i64 [ 2, %27 ], [ 1, %25 ]
  %28 = load ptr, ptr %24, align 8, !tbaa !15
  %29 = shl nuw i64 %indvars.iv45, 1
  %30 = and i64 %29, 62
  %31 = shl nuw i64 %.sink, %30
  %32 = lshr i64 %indvars.iv45, 5
  %33 = and i64 %32, 134217727
  %34 = getelementptr inbounds nuw i64, ptr %28, i64 %33
  %35 = load i64, ptr %34, align 8, !tbaa !17
  %36 = or i64 %35, %31
  store i64 %36, ptr %34, align 8, !tbaa !17
  br label %37

37:                                               ; preds = %.sink.split, %25
  %indvars.iv.next46 = add nuw nsw i64 %indvars.iv45, 1
  %.phi.trans.insert = getelementptr inbounds nuw i8, ptr %.043, i64 %indvars.iv.next46
  %.pre = load i8, ptr %.phi.trans.insert, align 1, !tbaa !36
  br label %25, !llvm.loop !38

.critedge:                                        ; preds = %25, %25
  %indvars.iv.next49 = add nuw nsw i64 %indvars.iv48, 1
  %38 = getelementptr i8, ptr %.043, i64 %19
  %39 = getelementptr i8, ptr %38, i64 3
  %40 = load i8, ptr %39, align 1, !tbaa !36
  %.not = icmp eq i8 %40, 0
  br i1 %.not, label %._crit_edge, label %.preheader, !llvm.loop !39

._crit_edge:                                      ; preds = %.critedge, %.preheader39
  ret ptr %12
}